target datalayout = "e-m:e-p270:32:32-p271:32:32-p272:64:64-i64:64-i128:128-f80:128-n8:16:32:64-S128"
target triple = "x86_64-pc-linux-gnu"

%struct.Abc_Frame_t_ = type { ptr, ptr, ptr, ptr, ptr, ptr, ptr, ptr, ptr, ptr, i32, i32, i32, i32, i32, ptr, float, float, i32, i32, ptr, ptr, ptr, double, double, ptr, ptr, ptr, ptr, ptr, ptr, ptr, ptr, ptr, ptr, ptr, ptr, float, ptr, i32, ptr, ptr, ptr, ptr, ptr, i32, i32, i32, i32, i32, i32, ptr, ptr, ptr, ptr, ptr, ptr, i32, i32, ptr, ptr, ptr, ptr, ptr, ptr, ptr, ptr, ptr, ptr, ptr, ptr, ptr, ptr, ptr, ptr, ptr, ptr, ptr, ptr, ptr, ptr, ptr, ptr, ptr, ptr, ptr, ptr, ptr, ptr }
%struct.Vec_Ptr_t_ = type { i32, i32, ptr }
%struct.Vec_Int_t_ = type { i32, i32, ptr }
%struct.Scl_Con_t_ = type { ptr, ptr, ptr, i32, i32, i32, i32, i32, %struct.Vec_Ptr_t_, %struct.Vec_Ptr_t_, %struct.Vec_Int_t_, %struct.Vec_Int_t_, %struct.Vec_Int_t_, %struct.Vec_Int_t_, %struct.Vec_Int_t_, ptr, ptr }

; Function Attrs: inlinehint nounwind uwtable
define internal ptr @Vec_PtrEntry(ptr noundef %0, i32 noundef %1) #1 {
  %3 = alloca ptr, align 8
  %4 = alloca i32, align 4
  store ptr %0, ptr %3, align 8, !tbaa !125
  store i32 %1, ptr %4, align 4, !tbaa !29
  %5 = load ptr, ptr %3, align 8, !tbaa !125
  %6 = getelementptr inbounds nuw %struct.Vec_Ptr_t_, ptr %5, i32 0, i32 2
  %7 = load ptr, ptr %6, align 8, !tbaa !127
  %8 = load i32, ptr %4, align 4, !tbaa !29
  %9 = sext i32 %8 to i64
  %10 = getelementptr inbounds ptr, ptr %7, i64 %9
  %11 = load ptr, ptr %10, align 8, !tbaa !128
  ret ptr %11
}

; Function Attrs: inlinehint nounwind uwtable
define internal i32 @Vec_PtrSize(ptr noundef %0) #1 {
  %2 = alloca ptr, align 8
  store ptr %0, ptr %2, align 8, !tbaa !125
  %3 = load ptr, ptr %2, align 8, !tbaa !125
  %4 = getelementptr inbounds nuw %struct.Vec_Ptr_t_, ptr %3, i32 0, i32 1
  %5 = load i32, ptr %4, align 4, !tbaa !126
  ret i32 %5
}

; Function Attrs: inlinehint nounwind uwtable
define internal void @Vec_IntErase(ptr noundef %0) #1 {
  %2 = alloca ptr, align 8
  store ptr %0, ptr %2, align 8, !tbaa !141
  %3 = load ptr, ptr %2, align 8, !tbaa !141
  %4 = getelementptr inbounds nuw %struct.Vec_Int_t_, ptr %3, i32 0, i32 2
  %5 = load ptr, ptr %4, align 8, !tbaa !142
  %6 = icmp ne ptr %5, null
  br i1 %6, label %7, label %13

7:                                                ; preds = %1
  %8 = load ptr, ptr %2, align 8, !tbaa !141
  %9 = getelementptr inbounds nuw %struct.Vec_Int_t_, ptr %8, i32 0, i32 2
  %10 = load ptr, ptr %9, align 8, !tbaa !142
  call void @free(ptr noundef %10) #12
  %11 = load ptr, ptr %2, align 8, !tbaa !141
  %12 = getelementptr inbounds nuw %struct.Vec_Int_t_, ptr %11, i32 0, i32 2
  store ptr null, ptr %12, align 8, !tbaa !142
  br label %14

13:                                               ; preds = %1
  br label %14

14:                                               ; preds = %13, %7
  %15 = load ptr, ptr %2, align 8, !tbaa !141
  %16 = getelementptr inbounds nuw %struct.Vec_Int_t_, ptr %15, i32 0, i32 1
  store i32 0, ptr %16, align 4, !tbaa !143
  %17 = load ptr, ptr %2, align 8, !tbaa !141
  %18 = getelementptr inbounds nuw %struct.Vec_Int_t_, ptr %17, i32 0, i32 0
  store i32 0, ptr %18, align 8, !tbaa !144
  ret void
}

; Function Attrs: inlinehint nounwind uwtable
define internal void @Vec_PtrFreeData(ptr noundef %0) #1 {
  %2 = alloca ptr, align 8
  %3 = alloca ptr, align 8
  %4 = alloca i32, align 4
  %5 = alloca i32, align 4
  store ptr %0, ptr %2, align 8, !tbaa !125
  call void @llvm.lifetime.start.p0(i64 8, ptr %3) #12
  call void @llvm.lifetime.start.p0(i64 4, ptr %4) #12
  %6 = load ptr, ptr %2, align 8, !tbaa !125
  %7 = icmp eq ptr %6, null
  br i1 %7, label %8, label %9

8:                                                ; preds = %1
  store i32 1, ptr %5, align 4
  br label %39

9:                                                ; preds = %1
  store i32 0, ptr %4, align 4, !tbaa !29
  br label %10

10:                                               ; preds = %35, %9
  %11 = load i32, ptr %4, align 4, !tbaa !29
  %12 = load ptr, ptr %2, align 8, !tbaa !125
  %13 = call i32 @Vec_PtrSize(ptr noundef %12)
  %14 = icmp slt i32 %11, %13
  br i1 %14, label %15, label %19

15:                                               ; preds = %10
  %16 = load ptr, ptr %2, align 8, !tbaa !125
  %17 = load i32, ptr %4, align 4, !tbaa !29
  %18 = call ptr @Vec_PtrEntry(ptr noundef %16, i32 noundef %17)
  store ptr %18, ptr %3, align 8, !tbaa !128
  br label %19

19:                                               ; preds = %15, %10
  %20 = phi i1 [ false, %10 ], [ true, %15 ]
  br i1 %20, label %21, label %38

21:                                               ; preds = %19
  %22 = load ptr, ptr %3, align 8, !tbaa !128
  %23 = icmp ne ptr %22, inttoptr (i64 1 to ptr)
  br i1 %23, label %24, label %34

24:                                               ; preds = %21
  %25 = load ptr, ptr %3, align 8, !tbaa !128
  %26 = icmp ne ptr %25, inttoptr (i64 2 to ptr)
  br i1 %26, label %27, label %34

27:                                               ; preds = %24
  %28 = load ptr, ptr %3, align 8, !tbaa !128
  %29 = icmp ne ptr %28, null
  br i1 %29, label %30, label %32

30:                                               ; preds = %27
  %31 = load ptr, ptr %3, align 8, !tbaa !128
  call void @free(ptr noundef %31) #12
  store ptr null, ptr %3, align 8, !tbaa !128
  br label %33

32:                                               ; preds = %27
  br label %33

33:                                               ; preds = %32, %30
  br label %34

34:                                               ; preds = %33, %24, %21
  br label %35

35:                                               ; preds = %34
  %36 = load i32, ptr %4, align 4, !tbaa !29
  %37 = add nsw i32 %36, 1
  store i32 %37, ptr %4, align 4, !tbaa !29
  br label %10, !llvm.loop !150

38:                                               ; preds = %19
  store i32 0, ptr %5, align 4
  br label %39

39:                                               ; preds = %38, %8
  call void @llvm.lifetime.end.p0(i64 4, ptr %4) #12
  call void @llvm.lifetime.end.p0(i64 8, ptr %3) #12
  %40 = load i32, ptr %5, align 4
  switch i32 %40, label %42 [
    i32 0, label %41
    i32 1, label %41
  ]

41:                                               ; preds = %39, %39
  ret void

42:                                               ; preds = %39
  unreachable
}

; Function Attrs: inlinehint nounwind uwtable
define internal void @Vec_PtrErase(ptr noundef %0) #1 {
  %2 = alloca ptr, align 8
  store ptr %0, ptr %2, align 8, !tbaa !125
  %3 = load ptr, ptr %2, align 8, !tbaa !125
  %4 = getelementptr inbounds nuw %struct.Vec_Ptr_t_, ptr %3, i32 0, i32 2
  %5 = load ptr, ptr %4, align 8, !tbaa !127
  %6 = icmp ne ptr %5, null
  br i1 %6, label %7, label %13

7:                                                ; preds = %1
  %8 = load ptr, ptr %2, align 8, !tbaa !125
  %9 = getelementptr inbounds nuw %struct.Vec_Ptr_t_, ptr %8, i32 0, i32 2
  %10 = load ptr, ptr %9, align 8, !tbaa !127
  call void @free(ptr noundef %10) #12
  %11 = load ptr, ptr %2, align 8, !tbaa !125
  %12 = getelementptr inbounds nuw %struct.Vec_Ptr_t_, ptr %11, i32 0, i32 2
  store ptr null, ptr %12, align 8, !tbaa !127
  br label %14

13:                                               ; preds = %1
  br label %14

14:                                               ; preds = %13, %7
  %15 = load ptr, ptr %2, align 8, !tbaa !125
  %16 = getelementptr inbounds nuw %struct.Vec_Ptr_t_, ptr %15, i32 0, i32 1
  store i32 0, ptr %16, align 4, !tbaa !126
  %17 = load ptr, ptr %2, align 8, !tbaa !125
  %18 = getelementptr inbounds nuw %struct.Vec_Ptr_t_, ptr %17, i32 0, i32 0
  store i32 0, ptr %18, align 8, !tbaa !132
  ret void
}

; Function Attrs: inlinehint nounwind uwtable
define internal void @Scl_ConFree(ptr noundef %0) #1 {
  %2 = alloca ptr, align 8
  store ptr %0, ptr %2, align 8, !tbaa !118
  %3 = load ptr, ptr %2, align 8, !tbaa !118
  %4 = getelementptr inbounds nuw %struct.Scl_Con_t_, ptr %3, i32 0, i32 9
  call void @Vec_PtrErase(ptr noundef %4)
  %5 = load ptr, ptr %2, align 8, !tbaa !118
  %6 = getelementptr inbounds nuw %struct.Scl_Con_t_, ptr %5, i32 0, i32 8
  call void @Vec_PtrFreeData(ptr noundef %6)
  %7 = load ptr, ptr %2, align 8, !tbaa !118
  %8 = getelementptr inbounds nuw %struct.Scl_Con_t_, ptr %7, i32 0, i32 8
  call void @Vec_PtrErase(ptr noundef %8)
  %9 = load ptr, ptr %2, align 8, !tbaa !118
  %10 = getelementptr inbounds nuw %struct.Scl_Con_t_, ptr %9, i32 0, i32 10
  call void @Vec_IntErase(ptr noundef %10)
  %11 = load ptr, ptr %2, align 8, !tbaa !118
  %12 = getelementptr inbounds nuw %struct.Scl_Con_t_, ptr %11, i32 0, i32 11
  call void @Vec_IntErase(ptr noundef %12)
  %13 = load ptr, ptr %2, align 8, !tbaa !118
  %14 = getelementptr inbounds nuw %struct.Scl_Con_t_, ptr %13, i32 0, i32 12
  call void @Vec_IntErase(ptr noundef %14)
  %15 = load ptr, ptr %2, align 8, !tbaa !118
  %16 = getelementptr inbounds nuw %struct.Scl_Con_t_, ptr %15, i32 0, i32 13
  call void @Vec_IntErase(ptr noundef %16)
  %17 = load ptr, ptr %2, align 8, !tbaa !118
  %18 = getelementptr inbounds nuw %struct.Scl_Con_t_, ptr %17, i32 0, i32 14
  call void @Vec_IntErase(ptr noundef %18)
  %19 = load ptr, ptr %2, align 8, !tbaa !118
  %20 = getelementptr inbounds nuw %struct.Scl_Con_t_, ptr %19, i32 0, i32 15
  %21 = load ptr, ptr %20, align 8, !tbaa !182
  call void @Abc_NamDeref(ptr noundef %21)
  %22 = load ptr, ptr %2, align 8, !tbaa !118
  %23 = getelementptr inbounds nuw %struct.Scl_Con_t_, ptr %22, i32 0, i32 16
  %24 = load ptr, ptr %23, align 8, !tbaa !183
  call void @Abc_NamDeref(ptr noundef %24)
  %25 = load ptr, ptr %2, align 8, !tbaa !118
  %26 = getelementptr inbounds nuw %struct.Scl_Con_t_, ptr %25, i32 0, i32 2
  %27 = load ptr, ptr %26, align 8, !tbaa !184
  %28 = icmp ne ptr %27, null
  br i1 %28, label %29, label %35

29:                                               ; preds = %1
  %30 = load ptr, ptr %2, align 8, !tbaa !118
  %31 = getelementptr inbounds nuw %struct.Scl_Con_t_, ptr %30, i32 0, i32 2
  %32 = load ptr, ptr %31, align 8, !tbaa !184
  call void @free(ptr noundef %32) #12
  %33 = load ptr, ptr %2, align 8, !tbaa !118
  %34 = getelementptr inbounds nuw %struct.Scl_Con_t_, ptr %33, i32 0, i32 2
  store ptr null, ptr %34, align 8, !tbaa !184
  br label %36

35:                                               ; preds = %1
  br label %36

36:                                               ; preds = %35, %29
  %37 = load ptr, ptr %2, align 8, !tbaa !118
  %38 = getelementptr inbounds nuw %struct.Scl_Con_t_, ptr %37, i32 0, i32 1
  %39 = load ptr, ptr %38, align 8, !tbaa !185
  %40 = icmp ne ptr %39, null
  br i1 %40, label %41, label %47

41:                                               ; preds = %36
  %42 = load ptr, ptr %2, align 8, !tbaa !118
  %43 = getelementptr inbounds nuw %struct.Scl_Con_t_, ptr %42, i32 0, i32 1
  %44 = load ptr, ptr %43, align 8, !tbaa !185
  call void @free(ptr noundef %44) #12
  %45 = load ptr, ptr %2, align 8, !tbaa !118
  %46 = getelementptr inbounds nuw %struct.Scl_Con_t_, ptr %45, i32 0, i32 1
  store ptr null, ptr %46, align 8, !tbaa !185
  br label %48

47:                                               ; preds = %36
  br label %48

48:                                               ; preds = %47, %41
  %49 = load ptr, ptr %2, align 8, !tbaa !118
  %50 = getelementptr inbounds nuw %struct.Scl_Con_t_, ptr %49, i32 0, i32 0
  %51 = load ptr, ptr %50, align 8, !tbaa !121
  %52 = icmp ne ptr %51, null
  br i1 %52, label %53, label %59

53:                                               ; preds = %48
  %54 = load ptr, ptr %2, align 8, !tbaa !118
  %55 = getelementptr inbounds nuw %struct.Scl_Con_t_, ptr %54, i32 0, i32 0
  %56 = load ptr, ptr %55, align 8, !tbaa !121
  call void @free(ptr noundef %56) #12
  %57 = load ptr, ptr %2, align 8, !tbaa !118
  %58 = getelementptr inbounds nuw %struct.Scl_Con_t_, ptr %57, i32 0, i32 0
  store ptr null, ptr %58, align 8, !tbaa !121
  br label %60

59:                                               ; preds = %48
  br label %60

60:                                               ; preds = %59, %53
  %61 = load ptr, ptr %2, align 8, !tbaa !118
  %62 = icmp ne ptr %61, null
  br i1 %62, label %63, label %65

63:                                               ; preds = %60
  %64 = load ptr, ptr %2, align 8, !tbaa !118
  call void @free(ptr noundef %64) #12
  store ptr null, ptr %2, align 8, !tbaa !118
  br label %66

65:                                               ; preds = %60
  br label %66

66:                                               ; preds = %65, %63
  ret void
}

; Function Attrs: inlinehint nounwind uwtable
define internal ptr @Scl_ConGetMan(ptr noundef %0) #1 {
  %2 = alloca ptr, align 8
  store ptr %0, ptr %2, align 8, !tbaa !3
  %3 = load ptr, ptr %2, align 8, !tbaa !3
  %4 = getelementptr inbounds nuw %struct.Abc_Frame_t_, ptr %3, i32 0, i32 35
  %5 = load ptr, ptr %4, align 8, !tbaa !8
  ret ptr %5
}

; Function Attrs: inlinehint nounwind uwtable
define internal void @Scl_ConFreeMan(ptr noundef %0) #1 {
  %2 = alloca ptr, align 8
  store ptr %0, ptr %2, align 8, !tbaa !3
  %3 = load ptr, ptr %2, align 8, !tbaa !3
  %4 = getelementptr inbounds nuw %struct.Abc_Frame_t_, ptr %3, i32 0, i32 35
  %5 = load ptr, ptr %4, align 8, !tbaa !8
  %6 = icmp ne ptr %5, null
  br i1 %6, label %7, label %10

7:                                                ; preds = %1
  %8 = load ptr, ptr %2, align 8, !tbaa !3
  %9 = call ptr @Scl_ConGetMan(ptr noundef %8)
  call void @Scl_ConFree(ptr noundef %9)
  br label %10

10:                                               ; preds = %7, %1
  ret void
}

; Function Attrs: inlinehint nounwind uwtable
define internal void @Scl_ConUpdateMan(ptr noundef %0, ptr noundef %1) #1 {
  %3 = alloca ptr, align 8
  %4 = alloca ptr, align 8
  store ptr %0, ptr %3, align 8, !tbaa !3
  store ptr %1, ptr %4, align 8, !tbaa !118
  %5 = load ptr, ptr %3, align 8, !tbaa !3
  call void @Scl_ConFreeMan(ptr noundef %5)
  %6 = load ptr, ptr %4, align 8, !tbaa !118
  %7 = load ptr, ptr %3, align 8, !tbaa !3
  %8 = getelementptr inbounds nuw %struct.Abc_Frame_t_, ptr %7, i32 0, i32 35
  store ptr %6, ptr %8, align 8, !tbaa !8
  ret void
}