; Function Attrs: inlinehint nounwind uwtable
define internal fastcc void @Scl_ConUpdateMan(ptr noundef captures(none) %0) unnamed_addr #2 {
  %2 = getelementptr i8, ptr %0, i64 248
  %.val = load ptr, ptr %2, align 8, !tbaa !3
  %.not.i = icmp eq ptr %.val, null
  br i1 %.not.i, label %Scl_ConFreeMan.exit, label %3

3:                                                ; preds = %1
  %4 = getelementptr inbounds nuw i8, ptr %.val, i64 64
  %5 = getelementptr inbounds nuw i8, ptr %.val, i64 72
  %6 = load ptr, ptr %5, align 8, !tbaa !27
  %.not.i.i.i = icmp eq ptr %6, null
  br i1 %.not.i.i.i, label %Vec_PtrErase.exit.i.i, label %7

7:                                                ; preds = %3
  tail call void @free(ptr noundef nonnull %6) #12
  store ptr null, ptr %5, align 8, !tbaa !27
  br label %Vec_PtrErase.exit.i.i

Vec_PtrErase.exit.i.i:                            ; preds = %7, %3
  %8 = getelementptr inbounds nuw i8, ptr %.val, i64 68
  store i32 0, ptr %8, align 4, !tbaa !25
  store i32 0, ptr %4, align 8, !tbaa !42
  %9 = getelementptr inbounds nuw i8, ptr %.val, i64 48
  %10 = getelementptr i8, ptr %.val, i64 52
  %.val15.i.i.i = load i32, ptr %10, align 4, !tbaa !25
  %11 = icmp sgt i32 %.val15.i.i.i, 0
  br i1 %11, label %.lr.ph.i.i.i, label %Vec_PtrFreeData.exit.i.i

.lr.ph.i.i.i:                                     ; preds = %Vec_PtrErase.exit.i.i
  %12 = getelementptr i8, ptr %.val, i64 56
  br label %13

13:                                               ; preds = %17, %.lr.ph.i.i.i
  %.val18.i.i.i = phi i32 [ %.val15.i.i.i, %.lr.ph.i.i.i ], [ %.val.i.i.i, %17 ]
  %indvars.iv.i.i.i = phi i64 [ 0, %.lr.ph.i.i.i ], [ %indvars.iv.next.i.i.i, %17 ]
  %.val14.i.i.i = load ptr, ptr %12, align 8, !tbaa !27
  %14 = getelementptr inbounds nuw ptr, ptr %.val14.i.i.i, i64 %indvars.iv.i.i.i
  %15 = load ptr, ptr %14, align 8, !tbaa !28
  %switch.i.i.i = icmp ult ptr %15, inttoptr (i64 3 to ptr)
  br i1 %switch.i.i.i, label %17, label %16

16:                                               ; preds = %13
  tail call void @free(ptr noundef %15) #12
  %.val.pre.i.i.i = load i32, ptr %10, align 4, !tbaa !25
  br label %17

17:                                               ; preds = %16, %13
  %.val.i.i.i = phi i32 [ %.val18.i.i.i, %13 ], [ %.val.pre.i.i.i, %16 ]
  %indvars.iv.next.i.i.i = add nuw nsw i64 %indvars.iv.i.i.i, 1
  %18 = sext i32 %.val.i.i.i to i64
  %19 = icmp slt i64 %indvars.iv.next.i.i.i, %18
  br i1 %19, label %13, label %Vec_PtrFreeData.exit.i.i, !llvm.loop !43

Vec_PtrFreeData.exit.i.i:                         ; preds = %17, %Vec_PtrErase.exit.i.i
  %20 = getelementptr inbounds nuw i8, ptr %.val, i64 56
  %21 = load ptr, ptr %20, align 8, !tbaa !27
  %.not.i25.i.i = icmp eq ptr %21, null
  br i1 %.not.i25.i.i, label %Vec_PtrErase.exit26.i.i, label %22

22:                                               ; preds = %Vec_PtrFreeData.exit.i.i
  tail call void @free(ptr noundef nonnull %21) #12
  store ptr null, ptr %20, align 8, !tbaa !27
  br label %Vec_PtrErase.exit26.i.i

Vec_PtrErase.exit26.i.i:                          ; preds = %22, %Vec_PtrFreeData.exit.i.i
  store i32 0, ptr %10, align 4, !tbaa !25
  store i32 0, ptr %9, align 8, !tbaa !42
  %23 = getelementptr inbounds nuw i8, ptr %.val, i64 80
  %24 = getelementptr inbounds nuw i8, ptr %.val, i64 88
  %25 = load ptr, ptr %24, align 8, !tbaa !29
  %.not.i27.i.i = icmp eq ptr %25, null
  br i1 %.not.i27.i.i, label %Vec_IntErase.exit.i.i, label %26

26:                                               ; preds = %Vec_PtrErase.exit26.i.i
  tail call void @free(ptr noundef nonnull %25) #12
  store ptr null, ptr %24, align 8, !tbaa !29
  br label %Vec_IntErase.exit.i.i

Vec_IntErase.exit.i.i:                            ; preds = %26, %Vec_PtrErase.exit26.i.i
  %27 = getelementptr inbounds nuw i8, ptr %.val, i64 84
  store i32 0, ptr %27, align 4, !tbaa !31
  store i32 0, ptr %23, align 8, !tbaa !32
  %28 = getelementptr inbounds nuw i8, ptr %.val, i64 96
  %29 = getelementptr inbounds nuw i8, ptr %.val, i64 104
  %30 = load ptr, ptr %29, align 8, !tbaa !29
  %.not.i28.i.i = icmp eq ptr %30, null
  br i1 %.not.i28.i.i, label %Vec_IntErase.exit29.i.i, label %31

31:                                               ; preds = %Vec_IntErase.exit.i.i
  tail call void @free(ptr noundef nonnull %30) #12
  store ptr null, ptr %29, align 8, !tbaa !29
  br label %Vec_IntErase.exit29.i.i

Vec_IntErase.exit29.i.i:                          ; preds = %31, %Vec_IntErase.exit.i.i
  %32 = getelementptr inbounds nuw i8, ptr %.val, i64 100
  store i32 0, ptr %32, align 4, !tbaa !31
  store i32 0, ptr %28, align 8, !tbaa !32
  %33 = getelementptr inbounds nuw i8, ptr %.val, i64 112
  %34 = getelementptr inbounds nuw i8, ptr %.val, i64 120
  %35 = load ptr, ptr %34, align 8, !tbaa !29
  %.not.i30.i.i = icmp eq ptr %35, null
  br i1 %.not.i30.i.i, label %Vec_IntErase.exit31.i.i, label %36

36:                                               ; preds = %Vec_IntErase.exit29.i.i
  tail call void @free(ptr noundef nonnull %35) #12
  store ptr null, ptr %34, align 8, !tbaa !29
  br label %Vec_IntErase.exit31.i.i

Vec_IntErase.exit31.i.i:                          ; preds = %36, %Vec_IntErase.exit29.i.i
  %37 = getelementptr inbounds nuw i8, ptr %.val, i64 116
  store i32 0, ptr %37, align 4, !tbaa !31
  store i32 0, ptr %33, align 8, !tbaa !32
  %38 = getelementptr inbounds nuw i8, ptr %.val, i64 128
  %39 = getelementptr inbounds nuw i8, ptr %.val, i64 136
  %40 = load ptr, ptr %39, align 8, !tbaa !29
  %.not.i32.i.i = icmp eq ptr %40, null
  br i1 %.not.i32.i.i, label %Vec_IntErase.exit33.i.i, label %41

41:                                               ; preds = %Vec_IntErase.exit31.i.i
  tail call void @free(ptr noundef nonnull %40) #12
  store ptr null, ptr %39, align 8, !tbaa !29
  br label %Vec_IntErase.exit33.i.i

Vec_IntErase.exit33.i.i:                          ; preds = %41, %Vec_IntErase.exit31.i.i
  %42 = getelementptr inbounds nuw i8, ptr %.val, i64 132
  store i32 0, ptr %42, align 4, !tbaa !31
  store i32 0, ptr %38, align 8, !tbaa !32
  %43 = getelementptr inbounds nuw i8, ptr %.val, i64 144
  %44 = getelementptr inbounds nuw i8, ptr %.val, i64 152
  %45 = load ptr, ptr %44, align 8, !tbaa !29
  %.not.i34.i.i = icmp eq ptr %45, null
  br i1 %.not.i34.i.i, label %Vec_IntErase.exit35.i.i, label %46

46:                                               ; preds = %Vec_IntErase.exit33.i.i
  tail call void @free(ptr noundef nonnull %45) #12
  store ptr null, ptr %44, align 8, !tbaa !29
  br label %Vec_IntErase.exit35.i.i

Vec_IntErase.exit35.i.i:                          ; preds = %46, %Vec_IntErase.exit33.i.i
  %47 = getelementptr inbounds nuw i8, ptr %.val, i64 148
  store i32 0, ptr %47, align 4, !tbaa !31
  store i32 0, ptr %43, align 8, !tbaa !32
  %48 = getelementptr inbounds nuw i8, ptr %.val, i64 160
  %49 = load ptr, ptr %48, align 8, !tbaa !125
  tail call void @Abc_NamDeref(ptr noundef %49) #12
  %50 = getelementptr inbounds nuw i8, ptr %.val, i64 168
  %51 = load ptr, ptr %50, align 8, !tbaa !126
  tail call void @Abc_NamDeref(ptr noundef %51) #12
  %52 = getelementptr inbounds nuw i8, ptr %.val, i64 16
  %53 = load ptr, ptr %52, align 8, !tbaa !127
  %.not.i.i = icmp eq ptr %53, null
  br i1 %.not.i.i, label %55, label %54

54:                                               ; preds = %Vec_IntErase.exit35.i.i
  tail call void @free(ptr noundef nonnull %53) #12
  store ptr null, ptr %52, align 8, !tbaa !127
  br label %55

55:                                               ; preds = %54, %Vec_IntErase.exit35.i.i
  %56 = getelementptr inbounds nuw i8, ptr %.val, i64 8
  %57 = load ptr, ptr %56, align 8, !tbaa !128
  %.not23.i.i = icmp eq ptr %57, null
  br i1 %.not23.i.i, label %59, label %58

58:                                               ; preds = %55
  tail call void @free(ptr noundef nonnull %57) #12
  store ptr null, ptr %56, align 8, !tbaa !128
  br label %59

59:                                               ; preds = %58, %55
  %60 = load ptr, ptr %.val, align 8, !tbaa !121
  %.not24.i.i = icmp eq ptr %60, null
  br i1 %.not24.i.i, label %Scl_ConFree.exit.i, label %61

61:                                               ; preds = %59
  tail call void @free(ptr noundef nonnull %60) #12
  br label %Scl_ConFree.exit.i

Scl_ConFree.exit.i:                               ; preds = %61, %59
  tail call void @free(ptr noundef nonnull %.val) #12
  br label %Scl_ConFreeMan.exit

Scl_ConFreeMan.exit:                              ; preds = %1, %Scl_ConFree.exit.i
  store ptr null, ptr %2, align 8, !tbaa !3
  ret void
}